; ModuleID = '44/121.c'
source_filename = "44/121.c"
target datalayout = "e-m:e-p270:32:32-p271:32:32-p272:64:64-i64:64-f80:128-n8:16:32:64-S128"
target triple = "x86_64-pc-linux-gnu"

@.str = private unnamed_addr constant [3 x i8] c"%d\00", align 1
@.str.1 = private unnamed_addr constant [4 x i8] c"%d\0A\00", align 1

; Function Attrs: noinline nounwind uwtable
define dso_local i64 @reverse(i64 %0) #0 {
  %2 = alloca i64, align 8
  %3 = alloca i64, align 8
  %4 = alloca i64, align 8
  %5 = alloca i64, align 8
  store i64 %0, i64* %2, align 8
  %6 = load i64, i64* %2, align 8
  store i64 %6, i64* %3, align 8
  store i64 0, i64* %4, align 8
  store i64 0, i64* %5, align 8
  br label %7

7:                                                ; preds = %10, %1
  %8 = load i64, i64* %3, align 8
  %9 = icmp ne i64 %8, 0
  br i1 %9, label %10, label %19

10:                                               ; preds = %7
  %11 = load i64, i64* %3, align 8
  %12 = srem i64 %11, 10
  store i64 %12, i64* %4, align 8
  %13 = load i64, i64* %5, align 8
  %14 = mul nsw i64 %13, 10
  %15 = load i64, i64* %4, align 8
  %16 = add nsw i64 %14, %15
  store i64 %16, i64* %5, align 8
  %17 = load i64, i64* %3, align 8
  %18 = sdiv i64 %17, 10
  store i64 %18, i64* %3, align 8
  br label %7

19:                                               ; preds = %7
  %20 = load i64, i64* %5, align 8
  ret i64 %20
}

; Function Attrs: noinline nounwind uwtable
define dso_local i32 @main() #0 {
  %1 = alloca i32, align 4
  %2 = alloca i64, align 8
  %3 = alloca i64, align 8
  %4 = alloca i64, align 8
  store i32 0, i32* %1, align 4
  store i64 0, i64* %4, align 8
  br label %5

5:                                                ; preds = %14, %0
  %6 = load i64, i64* %4, align 8
  %7 = icmp sle i64 %6, 5
  br i1 %7, label %8, label %17

8:                                                ; preds = %5
  %9 = call i32 (i8*, ...) @__isoc99_scanf(i8* getelementptr inbounds ([3 x i8], [3 x i8]* @.str, i64 0, i64 0), i64* %2)
  %10 = load i64, i64* %2, align 8
  %11 = call i64 @reverse(i64 %10)
  store i64 %11, i64* %3, align 8
  %12 = load i64, i64* %3, align 8
  %13 = call i32 (i8*, ...) @printf(i8* getelementptr inbounds ([4 x i8], [4 x i8]* @.str.1, i64 0, i64 0), i64 %12)
  br label %14

14:                                               ; preds = %8
  %15 = load i64, i64* %4, align 8
  %16 = add nsw i64 %15, 1
  store i64 %16, i64* %4, align 8
  br label %5

17:                                               ; preds = %5
  %18 = load i32, i32* %1, align 4
  ret i32 %18
}

declare dso_local i32 @__isoc99_scanf(i8*, ...) #1

declare dso_local i32 @printf(i8*, ...) #1


!llvm.module.flags = !{!0}
!llvm.ident = !{!1}

!0 = !{i32 1, !"wchar_size", i32 4}
!1 = !{!"clang version 10.0.0-4ubuntu1 "}
